; Function Attrs: nounwind uwtable
define ptr @l_Array_getLit___rarg(ptr noundef readonly captures(none) %0, ptr noundef %1, ptr noundef readnone captures(none) %2, ptr noundef readnone captures(none) %3) local_unnamed_addr #0 {
  %5 = ptrtoint ptr %1 to i64
  %6 = lshr i64 %5, 1
  %7 = getelementptr inbounds nuw i8, ptr %0, i64 24
  %8 = getelementptr inbounds nuw [0 x ptr], ptr %7, i64 0, i64 %6
  %9 = load ptr, ptr %8, align 8, !tbaa !4
  %10 = ptrtoint ptr %9 to i64
  %11 = and i64 %10, 1
  %.not.i.i = icmp eq i64 %11, 0
  br i1 %.not.i.i, label %12, label %lean_array_fget.exit

12:                                               ; preds = %4
  %.val.i.i.i = load i32, ptr %9, align 4, !tbaa !8
  %13 = icmp sgt i32 %.val.i.i.i, 0
  br i1 %13, label %14, label %16, !prof !11

14:                                               ; preds = %12
  %15 = add nuw i32 %.val.i.i.i, 1
  store i32 %15, ptr %9, align 4, !tbaa !8
  br label %lean_array_fget.exit

16:                                               ; preds = %12
  %.not.i.i.i = icmp eq i32 %.val.i.i.i, 0
  br i1 %.not.i.i.i, label %lean_array_fget.exit, label %17

17:                                               ; preds = %16
  tail call void @lean_inc_ref_cold(ptr noundef nonnull %9) #3
  br label %lean_array_fget.exit

lean_array_fget.exit:                             ; preds = %4, %14, %16, %17
  ret ptr %9
}